target datalayout = "e-m:e-p270:32:32-p271:32:32-p272:64:64-i64:64-i128:128-f80:128-n8:16:32:64-S128"
target triple = "x86_64-pc-linux-gnu"

%struct.dsa_method = type { ptr, ptr, ptr, ptr, ptr, ptr, ptr, ptr, i32, ptr, ptr, ptr }

@.str = private unnamed_addr constant [33 x i8] c"../openssl/crypto/dsa/dsa_meth.c\00", align 1

; Function Attrs: nounwind uwtable
define ptr @DSA_meth_dup(ptr noundef %0) #0 {
  %2 = alloca ptr, align 8
  %3 = alloca ptr, align 8
  %4 = alloca ptr, align 8
  %5 = alloca i32, align 4
  store ptr %0, ptr %3, align 8, !tbaa !10
  call void @llvm.lifetime.start.p0(i64 8, ptr %4) #4
  %6 = call noalias ptr @CRYPTO_malloc(i64 noundef 96, ptr noundef @.str, i32 noundef 48)
  store ptr %6, ptr %4, align 8, !tbaa !10
  %7 = load ptr, ptr %4, align 8, !tbaa !10
  %8 = icmp ne ptr %7, null
  br i1 %8, label %9, label %26

9:                                                ; preds = %1
  %10 = load ptr, ptr %4, align 8, !tbaa !10
  %11 = load ptr, ptr %3, align 8, !tbaa !10
  call void @llvm.memcpy.p0.p0.i64(ptr align 8 %10, ptr align 8 %11, i64 96, i1 false)
  %12 = load ptr, ptr %3, align 8, !tbaa !10
  %13 = getelementptr inbounds nuw %struct.dsa_method, ptr %12, i32 0, i32 0
  %14 = load ptr, ptr %13, align 8, !tbaa !14
  %15 = call noalias ptr @CRYPTO_strdup(ptr noundef %14, ptr noundef @.str, i32 noundef 53)
  %16 = load ptr, ptr %4, align 8, !tbaa !10
  %17 = getelementptr inbounds nuw %struct.dsa_method, ptr %16, i32 0, i32 0
  store ptr %15, ptr %17, align 8, !tbaa !14
  %18 = load ptr, ptr %4, align 8, !tbaa !10
  %19 = getelementptr inbounds nuw %struct.dsa_method, ptr %18, i32 0, i32 0
  %20 = load ptr, ptr %19, align 8, !tbaa !14
  %21 = icmp ne ptr %20, null
  br i1 %21, label %22, label %24

22:                                               ; preds = %9
  %23 = load ptr, ptr %4, align 8, !tbaa !10
  store ptr %23, ptr %2, align 8
  store i32 1, ptr %5, align 4
  br label %27

24:                                               ; preds = %9
  %25 = load ptr, ptr %4, align 8, !tbaa !10
  call void @CRYPTO_free(ptr noundef %25, ptr noundef @.str, i32 noundef 57)
  br label %26

26:                                               ; preds = %24, %1
  store ptr null, ptr %2, align 8
  store i32 1, ptr %5, align 4
  br label %27

27:                                               ; preds = %26, %22
  call void @llvm.lifetime.end.p0(i64 8, ptr %4) #4
  %28 = load ptr, ptr %2, align 8
  ret ptr %28
}